GAS LISTING /tmp/ccn9qkLP.s 			page 1


   1              		.file	"MemoryAllocatorTest.cpp"
   2              		.option pic
   3              		.option norelax
   4              		.text
   5              	.Ltext0:
   6              		.align	2
   7              		.globl	_Z11printStringPKc
   9              	_Z11printStringPKc:
  10              	.LFB0:
  11              		.file 1 "test/MemoryAllocatorTest.cpp"
   1:test/MemoryAllocatorTest.cpp **** //
   2:test/MemoryAllocatorTest.cpp **** // Created by bogdan on 11.7.22..
   3:test/MemoryAllocatorTest.cpp **** //
   4:test/MemoryAllocatorTest.cpp **** #include "../test/MemoryAllocatorTest.hpp"
   5:test/MemoryAllocatorTest.cpp **** 
   6:test/MemoryAllocatorTest.cpp **** 
   7:test/MemoryAllocatorTest.cpp **** 
   8:test/MemoryAllocatorTest.cpp **** void printString(const char *string){
  12              		.loc 1 8 37
  13              		.cfi_startproc
  14              	.LVL0:
  15 0000 130101FE 		addi	sp,sp,-32
  16              		.cfi_def_cfa_offset 32
  17 0004 233C1100 		sd	ra,24(sp)
  18 0008 23388100 		sd	s0,16(sp)
  19 000c 23349100 		sd	s1,8(sp)
  20 0010 23302101 		sd	s2,0(sp)
  21              		.cfi_offset 1, -8
  22              		.cfi_offset 8, -16
  23              		.cfi_offset 9, -24
  24              		.cfi_offset 18, -32
  25 0014 13040102 		addi	s0,sp,32
  26              		.cfi_def_cfa 8, 0
  27 0018 13090500 		mv	s2,a0
   9:test/MemoryAllocatorTest.cpp ****     char c;
  28              		.loc 1 9 5
  10:test/MemoryAllocatorTest.cpp ****     int i = 0;
  29              		.loc 1 10 5
  30              	.LVL1:
  31              		.loc 1 10 9 is_stmt 0
  32 001c 93070000 		li	a5,0
  33              	.LVL2:
  34              	.L3:
  11:test/MemoryAllocatorTest.cpp ****     while((c=string[i++])!='\0') __putc(c);
  35              		.loc 1 11 5 is_stmt 1 discriminator 2
  36              		.loc 1 11 26 discriminator 2
  37              		.loc 1 11 22 is_stmt 0 discriminator 2
  38 0020 9B841700 		addiw	s1,a5,1
  39              	.LVL3:
  40              		.loc 1 11 24 discriminator 2
  41 0024 B307F900 		add	a5,s2,a5
  42              	.LVL4:
  43              		.loc 1 11 13 discriminator 2
  44 0028 03C50700 		lbu	a0,0(a5)
  45              	.LVL5:
  46              		.loc 1 11 26 discriminator 2
  47 002c 630A0500 		beqz	a0,.L1
GAS LISTING /tmp/ccn9qkLP.s 			page 2


  48              		.loc 1 11 34 is_stmt 1 discriminator 1
  49              		.loc 1 11 40 is_stmt 0 discriminator 1
  50 0030 97000000 		call	__putc@plt
  50      E7800000 
  51              	.LVL6:
  52              		.loc 1 11 22 discriminator 1
  53 0038 93870400 		mv	a5,s1
  54              		.loc 1 11 5 discriminator 1
  55 003c 6FF05FFE 		j	.L3
  56              	.LVL7:
  57              	.L1:
  12:test/MemoryAllocatorTest.cpp **** }
  58              		.loc 1 12 1
  59 0040 83308101 		ld	ra,24(sp)
  60              		.cfi_restore 1
  61 0044 03340101 		ld	s0,16(sp)
  62              		.cfi_restore 8
  63              		.cfi_def_cfa 2, 32
  64 0048 83348100 		ld	s1,8(sp)
  65              		.cfi_restore 9
  66 004c 03390100 		ld	s2,0(sp)
  67              		.cfi_restore 18
  68              	.LVL8:
  69 0050 13010102 		addi	sp,sp,32
  70              		.cfi_def_cfa_offset 0
  71 0054 67800000 		jr	ra
  72              		.cfi_endproc
  73              	.LFE0:
  75              		.align	2
  76              		.globl	_Z10readStringPc
  78              	_Z10readStringPc:
  79              	.LFB1:
  13:test/MemoryAllocatorTest.cpp **** 
  14:test/MemoryAllocatorTest.cpp **** void readString(char word[]){
  80              		.loc 1 14 29 is_stmt 1
  81              		.cfi_startproc
  82              	.LVL9:
  83 0058 130101FE 		addi	sp,sp,-32
  84              		.cfi_def_cfa_offset 32
  85 005c 233C1100 		sd	ra,24(sp)
  86 0060 23388100 		sd	s0,16(sp)
  87 0064 23349100 		sd	s1,8(sp)
  88 0068 23302101 		sd	s2,0(sp)
  89              		.cfi_offset 1, -8
  90              		.cfi_offset 8, -16
  91              		.cfi_offset 9, -24
  92              		.cfi_offset 18, -32
  93 006c 13040102 		addi	s0,sp,32
  94              		.cfi_def_cfa 8, 0
  95 0070 13090500 		mv	s2,a0
  15:test/MemoryAllocatorTest.cpp ****     char c;
  96              		.loc 1 15 5
  16:test/MemoryAllocatorTest.cpp ****     int i = 0;
  97              		.loc 1 16 5
  98              	.LVL10:
  99              		.loc 1 16 9 is_stmt 0
 100 0074 93040000 		li	s1,0
GAS LISTING /tmp/ccn9qkLP.s 			page 3


 101              	.LVL11:
 102              	.L7:
  17:test/MemoryAllocatorTest.cpp ****     while((c=__getc())!='\n') word[i++] = c;
 103              		.loc 1 17 5 is_stmt 1 discriminator 2
 104              		.loc 1 17 23 discriminator 2
 105              		.loc 1 17 20 is_stmt 0 discriminator 2
 106 0078 97000000 		call	__getc@plt
 106      E7800000 
 107              	.LVL12:
 108              		.loc 1 17 23 discriminator 2
 109 0080 9307A000 		li	a5,10
 110 0084 630AF500 		beq	a0,a5,.L5
 111              		.loc 1 17 31 is_stmt 1 discriminator 1
 112              	.LVL13:
 113              		.loc 1 17 39 is_stmt 0 discriminator 1
 114 0088 B3079900 		add	a5,s2,s1
 115              		.loc 1 17 41 discriminator 1
 116 008c 2380A700 		sb	a0,0(a5)
 117              		.loc 1 17 37 discriminator 1
 118 0090 9B841400 		addiw	s1,s1,1
 119              	.LVL14:
 120              		.loc 1 17 5 discriminator 1
 121 0094 6FF05FFE 		j	.L7
 122              	.LVL15:
 123              	.L5:
  18:test/MemoryAllocatorTest.cpp **** }
 124              		.loc 1 18 1
 125 0098 83308101 		ld	ra,24(sp)
 126              		.cfi_restore 1
 127 009c 03340101 		ld	s0,16(sp)
 128              		.cfi_restore 8
 129              		.cfi_def_cfa 2, 32
 130 00a0 83348100 		ld	s1,8(sp)
 131              		.cfi_restore 9
 132              	.LVL16:
 133 00a4 03390100 		ld	s2,0(sp)
 134              		.cfi_restore 18
 135              	.LVL17:
 136 00a8 13010102 		addi	sp,sp,32
 137              		.cfi_def_cfa_offset 0
 138 00ac 67800000 		jr	ra
 139              		.cfi_endproc
 140              	.LFE1:
 142              		.align	2
 143              		.globl	_Z8printIntm
 145              	_Z8printIntm:
 146              	.LFB2:
  19:test/MemoryAllocatorTest.cpp **** 
  20:test/MemoryAllocatorTest.cpp **** 
  21:test/MemoryAllocatorTest.cpp **** void printInt(uint64 n){
 147              		.loc 1 21 24 is_stmt 1
 148              		.cfi_startproc
 149              	.LVL18:
 150 00b0 130101FE 		addi	sp,sp,-32
 151              		.cfi_def_cfa_offset 32
 152 00b4 233C1100 		sd	ra,24(sp)
 153 00b8 23388100 		sd	s0,16(sp)
GAS LISTING /tmp/ccn9qkLP.s 			page 4


 154 00bc 23349100 		sd	s1,8(sp)
 155              		.cfi_offset 1, -8
 156              		.cfi_offset 8, -16
 157              		.cfi_offset 9, -24
 158 00c0 13040102 		addi	s0,sp,32
 159              		.cfi_def_cfa 8, 0
 160 00c4 93040500 		mv	s1,a0
  22:test/MemoryAllocatorTest.cpp ****     if (n < 0) {
 161              		.loc 1 22 5
  23:test/MemoryAllocatorTest.cpp ****         __putc('-');
  24:test/MemoryAllocatorTest.cpp ****         n = -n;
  25:test/MemoryAllocatorTest.cpp ****     }
  26:test/MemoryAllocatorTest.cpp ****     if (n/10)
 162              		.loc 1 26 5
 163 00c8 93079000 		li	a5,9
 164 00cc 63E6A702 		bgtu	a0,a5,.L12
 165              	.LVL19:
 166              	.L10:
  27:test/MemoryAllocatorTest.cpp ****         printInt(n/10);
  28:test/MemoryAllocatorTest.cpp ****     __putc(n%10 + '0');
 167              		.loc 1 28 5
 168              		.loc 1 28 13 is_stmt 0
 169 00d0 1305A000 		li	a0,10
 170 00d4 33F5A402 		remu	a0,s1,a0
 171              		.loc 1 28 11
 172 00d8 13050503 		addi	a0,a0,48
 173 00dc 97000000 		call	__putc@plt
 173      E7800000 
 174              	.LVL20:
  29:test/MemoryAllocatorTest.cpp **** }
 175              		.loc 1 29 1
 176 00e4 83308101 		ld	ra,24(sp)
 177              		.cfi_remember_state
 178              		.cfi_restore 1
 179 00e8 03340101 		ld	s0,16(sp)
 180              		.cfi_restore 8
 181              		.cfi_def_cfa 2, 32
 182 00ec 83348100 		ld	s1,8(sp)
 183              		.cfi_restore 9
 184              	.LVL21:
 185 00f0 13010102 		addi	sp,sp,32
 186              		.cfi_def_cfa_offset 0
 187 00f4 67800000 		jr	ra
 188              	.LVL22:
 189              	.L12:
 190              		.cfi_restore_state
  27:test/MemoryAllocatorTest.cpp ****         printInt(n/10);
 191              		.loc 1 27 9 is_stmt 1
  27:test/MemoryAllocatorTest.cpp ****         printInt(n/10);
 192              		.loc 1 27 17 is_stmt 0
 193 00f8 1305A000 		li	a0,10
 194 00fc 33D5A402 		divu	a0,s1,a0
 195 0100 97000000 		call	_Z8printIntm
 195      E7800000 
 196              	.LVL23:
 197 0108 6FF09FFC 		j	.L10
 198              		.cfi_endproc
GAS LISTING /tmp/ccn9qkLP.s 			page 5


 199              	.LFE2:
 201              		.align	2
 202              		.globl	_Z12printIntegerm
 204              	_Z12printIntegerm:
 205              	.LFB3:
  30:test/MemoryAllocatorTest.cpp **** 
  31:test/MemoryAllocatorTest.cpp **** void printInteger(uint64 n){
 206              		.loc 1 31 28 is_stmt 1
 207              		.cfi_startproc
 208              	.LVL24:
 209 010c 130101FF 		addi	sp,sp,-16
 210              		.cfi_def_cfa_offset 16
 211 0110 23341100 		sd	ra,8(sp)
 212 0114 23308100 		sd	s0,0(sp)
 213              		.cfi_offset 1, -8
 214              		.cfi_offset 8, -16
 215 0118 13040101 		addi	s0,sp,16
 216              		.cfi_def_cfa 8, 0
  32:test/MemoryAllocatorTest.cpp ****     printInt(n);
 217              		.loc 1 32 5
 218              		.loc 1 32 13 is_stmt 0
 219 011c 97000000 		call	_Z8printIntm
 219      E7800000 
 220              	.LVL25:
  33:test/MemoryAllocatorTest.cpp ****     __putc('\n');
 221              		.loc 1 33 5 is_stmt 1
 222              		.loc 1 33 11 is_stmt 0
 223 0124 1305A000 		li	a0,10
 224 0128 97000000 		call	__putc@plt
 224      E7800000 
 225              	.LVL26:
  34:test/MemoryAllocatorTest.cpp **** }
 226              		.loc 1 34 1
 227 0130 83308100 		ld	ra,8(sp)
 228              		.cfi_restore 1
 229 0134 03340100 		ld	s0,0(sp)
 230              		.cfi_restore 8
 231              		.cfi_def_cfa 2, 16
 232 0138 13010101 		addi	sp,sp,16
 233              		.cfi_def_cfa_offset 0
 234 013c 67800000 		jr	ra
 235              		.cfi_endproc
 236              	.LFE3:
 238              		.section	.rodata.str1.8,"aMS",@progbits,1
 239              		.align	3
 240              	.LC0:
 241 0000 6D616C6C 		.string	"mallocFree\n"
 241      6F634672 
 241      65650A00 
 242 000c 00000000 		.align	3
 243              	.LC1:
 244 0010 6E6F7420 		.string	"not ok\n"
 244      6F6B0A00 
 245              		.align	3
 246              	.LC2:
 247 0018 6F6B0A00 		.string	"ok\n"
 248              		.text
GAS LISTING /tmp/ccn9qkLP.s 			page 6


 249              		.align	2
 250              		.globl	_Z10mallocFreeR15MemoryAllocator
 252              	_Z10mallocFreeR15MemoryAllocator:
 253              	.LFB4:
  35:test/MemoryAllocatorTest.cpp **** 
  36:test/MemoryAllocatorTest.cpp **** void mallocFree(MemoryAllocator& allocator){
 254              		.loc 1 36 44 is_stmt 1
 255              		.cfi_startproc
 256              	.LVL27:
 257 0140 130101CC 		addi	sp,sp,-832
 258              		.cfi_def_cfa_offset 832
 259 0144 233C1132 		sd	ra,824(sp)
 260 0148 23388132 		sd	s0,816(sp)
 261 014c 23349132 		sd	s1,808(sp)
 262 0150 23302133 		sd	s2,800(sp)
 263              		.cfi_offset 1, -8
 264              		.cfi_offset 8, -16
 265              		.cfi_offset 9, -24
 266              		.cfi_offset 18, -32
 267 0154 13040134 		addi	s0,sp,832
 268              		.cfi_def_cfa 8, 0
 269 0158 13090500 		mv	s2,a0
  37:test/MemoryAllocatorTest.cpp ****     printString("mallocFree\n");
 270              		.loc 1 37 5
 271              		.loc 1 37 16 is_stmt 0
 272 015c 17050000 		lla	a0,.LC0
 272      13050500 
 273              	.LVL28:
 274 0164 97000000 		call	_Z11printStringPKc
 274      E7800000 
 275              	.LVL29:
 276              	.LBB2:
  38:test/MemoryAllocatorTest.cpp ****     constexpr int num = 100;
  39:test/MemoryAllocatorTest.cpp ****     void* addrs[num];
  40:test/MemoryAllocatorTest.cpp ****     for(int i = 0; i<num;i++){
 277              		.loc 1 40 13
 278 016c 93040000 		li	s1,0
 279 0170 6F008000 		j	.L19
 280              	.LVL30:
 281              	.L17:
 282              		.loc 1 40 5 is_stmt 1 discriminator 2
 283 0174 9B841400 		addiw	s1,s1,1
 284              	.LVL31:
 285              	.L19:
 286              		.loc 1 40 21 discriminator 1
 287 0178 93073006 		li	a5,99
 288 017c 63C89704 		bgt	s1,a5,.L27
  41:test/MemoryAllocatorTest.cpp ****         addrs[i] = allocator.getMemory(100);
 289              		.loc 1 41 9
 290              		.loc 1 41 39 is_stmt 0
 291 0180 93054006 		li	a1,100
 292 0184 13050900 		mv	a0,s2
 293 0188 97000000 		call	_ZN15MemoryAllocator9getMemoryEm@plt
 293      E7800000 
 294              	.LVL32:
 295              		.loc 1 41 18
 296 0190 93973400 		slli	a5,s1,3
GAS LISTING /tmp/ccn9qkLP.s 			page 7


 297 0194 130704FE 		addi	a4,s0,-32
 298 0198 B307F700 		add	a5,a4,a5
 299 019c 23B0A7CE 		sd	a0,-800(a5)
  42:test/MemoryAllocatorTest.cpp ****         if(addrs[i] == 0){
 300              		.loc 1 42 9 is_stmt 1
 301 01a0 E31A05FC 		bnez	a0,.L17
  43:test/MemoryAllocatorTest.cpp ****             printString("not ok\n");
 302              		.loc 1 43 13
 303              		.loc 1 43 24 is_stmt 0
 304 01a4 17050000 		lla	a0,.LC1
 304      13050500 
 305 01ac 97000000 		call	_Z11printStringPKc
 305      E7800000 
 306              	.LVL33:
  44:test/MemoryAllocatorTest.cpp ****             return;
 307              		.loc 1 44 13 is_stmt 1
 308              	.L15:
 309              	.LBE2:
  45:test/MemoryAllocatorTest.cpp ****         }
  46:test/MemoryAllocatorTest.cpp ****     }
  47:test/MemoryAllocatorTest.cpp **** 
  48:test/MemoryAllocatorTest.cpp ****     for(int i = 0 ; i<num ; i+=2){
  49:test/MemoryAllocatorTest.cpp ****         int retval = allocator.freeMemory(addrs[i]);
  50:test/MemoryAllocatorTest.cpp ****         if(retval != 0){
  51:test/MemoryAllocatorTest.cpp ****             printString("not ok\n");
  52:test/MemoryAllocatorTest.cpp ****             return;
  53:test/MemoryAllocatorTest.cpp ****         }
  54:test/MemoryAllocatorTest.cpp ****     }
  55:test/MemoryAllocatorTest.cpp **** 
  56:test/MemoryAllocatorTest.cpp ****     for(int i = 0 ; i<num;i+=2){
  57:test/MemoryAllocatorTest.cpp ****         addrs[i] = allocator.getMemory(20);
  58:test/MemoryAllocatorTest.cpp ****         if(addrs[i] == 0){
  59:test/MemoryAllocatorTest.cpp ****             printString("not ok\n");;
  60:test/MemoryAllocatorTest.cpp ****             return;
  61:test/MemoryAllocatorTest.cpp ****         }
  62:test/MemoryAllocatorTest.cpp ****     }
  63:test/MemoryAllocatorTest.cpp **** 
  64:test/MemoryAllocatorTest.cpp ****     for(int i = 0; i<num;i++){
  65:test/MemoryAllocatorTest.cpp ****         int retval = allocator.freeMemory(addrs[i]);
  66:test/MemoryAllocatorTest.cpp ****         if(retval != 0){
  67:test/MemoryAllocatorTest.cpp ****             printString("not ok\n");;
  68:test/MemoryAllocatorTest.cpp ****             return;
  69:test/MemoryAllocatorTest.cpp ****         }
  70:test/MemoryAllocatorTest.cpp ****     }
  71:test/MemoryAllocatorTest.cpp **** 
  72:test/MemoryAllocatorTest.cpp ****     printString("ok\n");;
  73:test/MemoryAllocatorTest.cpp **** }
 310              		.loc 1 73 1 is_stmt 0
 311 01b4 83308133 		ld	ra,824(sp)
 312              		.cfi_remember_state
 313              		.cfi_restore 1
 314 01b8 03340133 		ld	s0,816(sp)
 315              		.cfi_restore 8
 316              		.cfi_def_cfa 2, 832
 317 01bc 83348132 		ld	s1,808(sp)
 318              		.cfi_restore 9
 319 01c0 03390132 		ld	s2,800(sp)
GAS LISTING /tmp/ccn9qkLP.s 			page 8


 320              		.cfi_restore 18
 321              	.LVL34:
 322 01c4 13010134 		addi	sp,sp,832
 323              		.cfi_def_cfa_offset 0
 324 01c8 67800000 		jr	ra
 325              	.LVL35:
 326              	.L27:
 327              		.cfi_restore_state
 328              	.LBB3:
  48:test/MemoryAllocatorTest.cpp ****         int retval = allocator.freeMemory(addrs[i]);
 329              		.loc 1 48 13
 330 01cc 93040000 		li	s1,0
 331              	.LVL36:
 332              	.L16:
  48:test/MemoryAllocatorTest.cpp ****         int retval = allocator.freeMemory(addrs[i]);
 333              		.loc 1 48 22 is_stmt 1 discriminator 1
 334 01d0 93073006 		li	a5,99
 335 01d4 63C09704 		bgt	s1,a5,.L28
 336              	.LBB4:
  49:test/MemoryAllocatorTest.cpp ****         if(retval != 0){
 337              		.loc 1 49 9
  49:test/MemoryAllocatorTest.cpp ****         if(retval != 0){
 338              		.loc 1 49 42 is_stmt 0
 339 01d8 93973400 		slli	a5,s1,3
 340 01dc 130704FE 		addi	a4,s0,-32
 341 01e0 B307F700 		add	a5,a4,a5
 342 01e4 83B507CE 		ld	a1,-800(a5)
 343 01e8 13050900 		mv	a0,s2
 344 01ec 97000000 		call	_ZN15MemoryAllocator10freeMemoryEPv@plt
 344      E7800000 
 345              	.LVL37:
  50:test/MemoryAllocatorTest.cpp ****             printString("not ok\n");
 346              		.loc 1 50 9 is_stmt 1
 347 01f4 63160500 		bnez	a0,.L31
 348              	.LBE4:
  48:test/MemoryAllocatorTest.cpp ****         int retval = allocator.freeMemory(addrs[i]);
 349              		.loc 1 48 5 discriminator 2
  48:test/MemoryAllocatorTest.cpp ****         int retval = allocator.freeMemory(addrs[i]);
 350              		.loc 1 48 30 is_stmt 0 discriminator 2
 351 01f8 9B842400 		addiw	s1,s1,2
 352              	.LVL38:
  48:test/MemoryAllocatorTest.cpp ****         int retval = allocator.freeMemory(addrs[i]);
 353              		.loc 1 48 5 discriminator 2
 354 01fc 6FF05FFD 		j	.L16
 355              	.LVL39:
 356              	.L31:
 357              	.LBB5:
  51:test/MemoryAllocatorTest.cpp ****             return;
 358              		.loc 1 51 13 is_stmt 1
  51:test/MemoryAllocatorTest.cpp ****             return;
 359              		.loc 1 51 24 is_stmt 0
 360 0200 17050000 		lla	a0,.LC1
 360      13050500 
 361              	.LVL40:
 362 0208 97000000 		call	_Z11printStringPKc
 362      E7800000 
 363              	.LVL41:
GAS LISTING /tmp/ccn9qkLP.s 			page 9


  52:test/MemoryAllocatorTest.cpp ****         }
 364              		.loc 1 52 13 is_stmt 1
 365 0210 6FF05FFA 		j	.L15
 366              	.L28:
 367              	.LBE5:
 368              	.LBE3:
 369              	.LBB6:
  56:test/MemoryAllocatorTest.cpp ****         addrs[i] = allocator.getMemory(20);
 370              		.loc 1 56 13 is_stmt 0
 371 0214 93040000 		li	s1,0
 372              	.LVL42:
 373 0218 6F008000 		j	.L20
 374              	.LVL43:
 375              	.L23:
  56:test/MemoryAllocatorTest.cpp ****         addrs[i] = allocator.getMemory(20);
 376              		.loc 1 56 5 is_stmt 1 discriminator 2
  56:test/MemoryAllocatorTest.cpp ****         addrs[i] = allocator.getMemory(20);
 377              		.loc 1 56 28 is_stmt 0 discriminator 2
 378 021c 9B842400 		addiw	s1,s1,2
 379              	.LVL44:
 380              	.L20:
  56:test/MemoryAllocatorTest.cpp ****         addrs[i] = allocator.getMemory(20);
 381              		.loc 1 56 22 is_stmt 1 discriminator 1
 382 0220 93073006 		li	a5,99
 383 0224 63CE9702 		bgt	s1,a5,.L29
  57:test/MemoryAllocatorTest.cpp ****         if(addrs[i] == 0){
 384              		.loc 1 57 9
  57:test/MemoryAllocatorTest.cpp ****         if(addrs[i] == 0){
 385              		.loc 1 57 39 is_stmt 0
 386 0228 93054001 		li	a1,20
 387 022c 13050900 		mv	a0,s2
 388 0230 97000000 		call	_ZN15MemoryAllocator9getMemoryEm@plt
 388      E7800000 
 389              	.LVL45:
  57:test/MemoryAllocatorTest.cpp ****         if(addrs[i] == 0){
 390              		.loc 1 57 18
 391 0238 93973400 		slli	a5,s1,3
 392 023c 130704FE 		addi	a4,s0,-32
 393 0240 B307F700 		add	a5,a4,a5
 394 0244 23B0A7CE 		sd	a0,-800(a5)
  58:test/MemoryAllocatorTest.cpp ****             printString("not ok\n");;
 395              		.loc 1 58 9 is_stmt 1
 396 0248 E31A05FC 		bnez	a0,.L23
  59:test/MemoryAllocatorTest.cpp ****             return;
 397              		.loc 1 59 13
  59:test/MemoryAllocatorTest.cpp ****             return;
 398              		.loc 1 59 24 is_stmt 0
 399 024c 17050000 		lla	a0,.LC1
 399      13050500 
 400 0254 97000000 		call	_Z11printStringPKc
 400      E7800000 
 401              	.LVL46:
  59:test/MemoryAllocatorTest.cpp ****             return;
 402              		.loc 1 59 37 is_stmt 1
  60:test/MemoryAllocatorTest.cpp ****         }
 403              		.loc 1 60 13
 404 025c 6FF09FF5 		j	.L15
GAS LISTING /tmp/ccn9qkLP.s 			page 10


 405              	.L29:
 406              	.LBE6:
 407              	.LBB7:
  64:test/MemoryAllocatorTest.cpp ****         int retval = allocator.freeMemory(addrs[i]);
 408              		.loc 1 64 13 is_stmt 0
 409 0260 93040000 		li	s1,0
 410              	.LVL47:
 411              	.L22:
  64:test/MemoryAllocatorTest.cpp ****         int retval = allocator.freeMemory(addrs[i]);
 412              		.loc 1 64 21 is_stmt 1 discriminator 1
 413 0264 93073006 		li	a5,99
 414 0268 63C09704 		bgt	s1,a5,.L24
 415              	.LBB8:
  65:test/MemoryAllocatorTest.cpp ****         if(retval != 0){
 416              		.loc 1 65 9
  65:test/MemoryAllocatorTest.cpp ****         if(retval != 0){
 417              		.loc 1 65 42 is_stmt 0
 418 026c 93973400 		slli	a5,s1,3
 419 0270 130704FE 		addi	a4,s0,-32
 420 0274 B307F700 		add	a5,a4,a5
 421 0278 83B507CE 		ld	a1,-800(a5)
 422 027c 13050900 		mv	a0,s2
 423 0280 97000000 		call	_ZN15MemoryAllocator10freeMemoryEPv@plt
 423      E7800000 
 424              	.LVL48:
  66:test/MemoryAllocatorTest.cpp ****             printString("not ok\n");;
 425              		.loc 1 66 9 is_stmt 1
 426 0288 63160500 		bnez	a0,.L32
 427              	.LBE8:
  64:test/MemoryAllocatorTest.cpp ****         int retval = allocator.freeMemory(addrs[i]);
 428              		.loc 1 64 5 discriminator 2
 429 028c 9B841400 		addiw	s1,s1,1
 430              	.LVL49:
 431 0290 6FF05FFD 		j	.L22
 432              	.LVL50:
 433              	.L32:
 434              	.LBB9:
  67:test/MemoryAllocatorTest.cpp ****             return;
 435              		.loc 1 67 13
  67:test/MemoryAllocatorTest.cpp ****             return;
 436              		.loc 1 67 24 is_stmt 0
 437 0294 17050000 		lla	a0,.LC1
 437      13050500 
 438              	.LVL51:
 439 029c 97000000 		call	_Z11printStringPKc
 439      E7800000 
 440              	.LVL52:
  67:test/MemoryAllocatorTest.cpp ****             return;
 441              		.loc 1 67 37 is_stmt 1
  68:test/MemoryAllocatorTest.cpp ****         }
 442              		.loc 1 68 13
 443 02a4 6FF01FF1 		j	.L15
 444              	.L24:
 445              	.LBE9:
 446              	.LBE7:
  72:test/MemoryAllocatorTest.cpp **** }
 447              		.loc 1 72 5
GAS LISTING /tmp/ccn9qkLP.s 			page 11


  72:test/MemoryAllocatorTest.cpp **** }
 448              		.loc 1 72 16 is_stmt 0
 449 02a8 17050000 		lla	a0,.LC2
 449      13050500 
 450 02b0 97000000 		call	_Z11printStringPKc
 450      E7800000 
 451              	.LVL53:
  72:test/MemoryAllocatorTest.cpp **** }
 452              		.loc 1 72 25 is_stmt 1
 453 02b8 6FF0DFEF 		j	.L15
 454              		.cfi_endproc
 455              	.LFE4:
 457              		.section	.rodata.str1.8
 458 001c 00000000 		.align	3
 459              	.LC3:
 460 0020 62696720 		.string	"big Malloc\n"
 460      4D616C6C 
 460      6F630A00 
 461              		.text
 462              		.align	2
 463              		.globl	_Z9bigMallocR15MemoryAllocator
 465              	_Z9bigMallocR15MemoryAllocator:
 466              	.LFB5:
  74:test/MemoryAllocatorTest.cpp **** 
  75:test/MemoryAllocatorTest.cpp **** 
  76:test/MemoryAllocatorTest.cpp **** void bigMalloc(MemoryAllocator& allocator){
 467              		.loc 1 76 43
 468              		.cfi_startproc
 469              	.LVL54:
 470 02bc 130101FE 		addi	sp,sp,-32
 471              		.cfi_def_cfa_offset 32
 472 02c0 233C1100 		sd	ra,24(sp)
 473 02c4 23388100 		sd	s0,16(sp)
 474 02c8 23349100 		sd	s1,8(sp)
 475              		.cfi_offset 1, -8
 476              		.cfi_offset 8, -16
 477              		.cfi_offset 9, -24
 478 02cc 13040102 		addi	s0,sp,32
 479              		.cfi_def_cfa 8, 0
 480 02d0 93040500 		mv	s1,a0
  77:test/MemoryAllocatorTest.cpp **** 
  78:test/MemoryAllocatorTest.cpp ****     printString("big Malloc\n");;
 481              		.loc 1 78 5
 482              		.loc 1 78 16 is_stmt 0
 483 02d4 17050000 		lla	a0,.LC3
 483      13050500 
 484              	.LVL55:
 485 02dc 97000000 		call	_Z11printStringPKc
 485      E7800000 
 486              	.LVL56:
 487              		.loc 1 78 33 is_stmt 1
  79:test/MemoryAllocatorTest.cpp ****     size_t x = (size_t)HEAP_END_ADDR - (size_t)HEAP_START_ADDR + 100UL;
 488              		.loc 1 79 5
 489              		.loc 1 79 38 is_stmt 0
 490 02e4 97070000 		la	a5,HEAP_END_ADDR
 490      83B70700 
 491 02ec 83B50700 		ld	a1,0(a5)
GAS LISTING /tmp/ccn9qkLP.s 			page 12


 492 02f0 97070000 		la	a5,HEAP_START_ADDR
 492      83B70700 
 493 02f8 83B70700 		ld	a5,0(a5)
 494 02fc B385F540 		sub	a1,a1,a5
 495              	.LVL57:
  80:test/MemoryAllocatorTest.cpp ****     void* p = allocator.getMemory(x);
 496              		.loc 1 80 5 is_stmt 1
 497              		.loc 1 80 34 is_stmt 0
 498 0300 93854506 		addi	a1,a1,100
 499              	.LVL58:
 500 0304 13850400 		mv	a0,s1
 501 0308 97000000 		call	_ZN15MemoryAllocator9getMemoryEm@plt
 501      E7800000 
 502              	.LVL59:
  81:test/MemoryAllocatorTest.cpp ****     if(p == 0) printString("ok\n");
 503              		.loc 1 81 5 is_stmt 1
 504 0310 63040502 		beqz	a0,.L37
  82:test/MemoryAllocatorTest.cpp ****     else printString("not ok\n");
 505              		.loc 1 82 10
 506              		.loc 1 82 21 is_stmt 0
 507 0314 17050000 		lla	a0,.LC1
 507      13050500 
 508              	.LVL60:
 509 031c 97000000 		call	_Z11printStringPKc
 509      E7800000 
 510              	.LVL61:
 511              	.L33:
  83:test/MemoryAllocatorTest.cpp **** }
 512              		.loc 1 83 1
 513 0324 83308101 		ld	ra,24(sp)
 514              		.cfi_remember_state
 515              		.cfi_restore 1
 516 0328 03340101 		ld	s0,16(sp)
 517              		.cfi_restore 8
 518              		.cfi_def_cfa 2, 32
 519 032c 83348100 		ld	s1,8(sp)
 520              		.cfi_restore 9
 521              	.LVL62:
 522 0330 13010102 		addi	sp,sp,32
 523              		.cfi_def_cfa_offset 0
 524 0334 67800000 		jr	ra
 525              	.LVL63:
 526              	.L37:
 527              		.cfi_restore_state
  81:test/MemoryAllocatorTest.cpp ****     if(p == 0) printString("ok\n");
 528              		.loc 1 81 16 is_stmt 1 discriminator 1
  81:test/MemoryAllocatorTest.cpp ****     if(p == 0) printString("ok\n");
 529              		.loc 1 81 27 is_stmt 0 discriminator 1
 530 0338 17050000 		lla	a0,.LC2
 530      13050500 
 531              	.LVL64:
 532 0340 97000000 		call	_Z11printStringPKc
 532      E7800000 
 533              	.LVL65:
 534 0348 6FF0DFFD 		j	.L33
 535              		.cfi_endproc
 536              	.LFE5:
GAS LISTING /tmp/ccn9qkLP.s 			page 13


 538              		.section	.rodata.str1.8
 539 002c 00000000 		.align	3
 540              	.LC4:
 541 0030 6C6F744F 		.string	"lotOfSmallMallocs\n"
 541      66536D61 
 541      6C6C4D61 
 541      6C6C6F63 
 541      730A00
 542 0043 00000000 		.align	3
 542      00
 543              	.LC5:
 544 0048 0A00     		.string	"\n"
 545              		.text
 546              		.align	2
 547              		.globl	_Z17lotOfSmallMallocsR15MemoryAllocator
 549              	_Z17lotOfSmallMallocsR15MemoryAllocator:
 550              	.LFB6:
  84:test/MemoryAllocatorTest.cpp **** 
  85:test/MemoryAllocatorTest.cpp **** 
  86:test/MemoryAllocatorTest.cpp **** 
  87:test/MemoryAllocatorTest.cpp **** 
  88:test/MemoryAllocatorTest.cpp **** 
  89:test/MemoryAllocatorTest.cpp **** void lotOfSmallMallocs(MemoryAllocator& allocator){
 551              		.loc 1 89 51 is_stmt 1
 552              		.cfi_startproc
 553              	.LVL66:
 554 034c 130101FD 		addi	sp,sp,-48
 555              		.cfi_def_cfa_offset 48
 556 0350 23341102 		sd	ra,40(sp)
 557 0354 23308102 		sd	s0,32(sp)
 558 0358 233C9100 		sd	s1,24(sp)
 559 035c 23382101 		sd	s2,16(sp)
 560 0360 23343101 		sd	s3,8(sp)
 561 0364 23304101 		sd	s4,0(sp)
 562              		.cfi_offset 1, -8
 563              		.cfi_offset 8, -16
 564              		.cfi_offset 9, -24
 565              		.cfi_offset 18, -32
 566              		.cfi_offset 19, -40
 567              		.cfi_offset 20, -48
 568 0368 13040103 		addi	s0,sp,48
 569              		.cfi_def_cfa 8, 0
 570 036c 130A0500 		mv	s4,a0
  90:test/MemoryAllocatorTest.cpp **** 
  91:test/MemoryAllocatorTest.cpp ****     printString("lotOfSmallMallocs\n");;
 571              		.loc 1 91 5
 572              		.loc 1 91 16 is_stmt 0
 573 0370 17050000 		lla	a0,.LC4
 573      13050500 
 574              	.LVL67:
 575 0378 97000000 		call	_Z11printStringPKc
 575      E7800000 
 576              	.LVL68:
 577              		.loc 1 91 40 is_stmt 1
  92:test/MemoryAllocatorTest.cpp ****     uint64 cnt = 0;
 578              		.loc 1 92 5
  93:test/MemoryAllocatorTest.cpp ****     uint64 sum = 0;
GAS LISTING /tmp/ccn9qkLP.s 			page 14


 579              		.loc 1 93 5
  94:test/MemoryAllocatorTest.cpp ****     uint64 N = 1000000UL;
 580              		.loc 1 94 5
  95:test/MemoryAllocatorTest.cpp ****     uint64 X = 10UL;
 581              		.loc 1 95 5
  96:test/MemoryAllocatorTest.cpp ****     for(uint64 i = 0; i<N;i++){
 582              		.loc 1 96 5
 583              	.LBB10:
 584              		.loc 1 96 16 is_stmt 0
 585 0380 93040000 		li	s1,0
 586              	.LBE10:
  93:test/MemoryAllocatorTest.cpp ****     uint64 N = 1000000UL;
 587              		.loc 1 93 12
 588 0384 93090000 		li	s3,0
  92:test/MemoryAllocatorTest.cpp ****     uint64 sum = 0;
 589              		.loc 1 92 12
 590 0388 13090000 		li	s2,0
 591 038c 6F008001 		j	.L40
 592              	.LVL69:
 593              	.L44:
 594              	.LBB13:
 595              	.LBB11:
  97:test/MemoryAllocatorTest.cpp ****         Test* t = (Test*)allocator.getMemory(sizeof(Test));
  98:test/MemoryAllocatorTest.cpp ****         if(t == 0)break;
  99:test/MemoryAllocatorTest.cpp ****         t->a = X;
 596              		.loc 1 99 9 is_stmt 1 discriminator 2
 597              		.loc 1 99 14 is_stmt 0 discriminator 2
 598 0390 9307A000 		li	a5,10
 599 0394 2320F500 		sw	a5,0(a0)
 100:test/MemoryAllocatorTest.cpp ****         sum+=t->a;
 600              		.loc 1 100 9 is_stmt 1 discriminator 2
 601              		.loc 1 100 12 is_stmt 0 discriminator 2
 602 0398 9389A900 		addi	s3,s3,10
 603              	.LVL70:
 101:test/MemoryAllocatorTest.cpp ****         cnt++;
 604              		.loc 1 101 9 is_stmt 1 discriminator 2
 605              		.loc 1 101 12 is_stmt 0 discriminator 2
 606 039c 13091900 		addi	s2,s2,1
 607              	.LVL71:
 608              	.LBE11:
  96:test/MemoryAllocatorTest.cpp ****         Test* t = (Test*)allocator.getMemory(sizeof(Test));
 609              		.loc 1 96 5 is_stmt 1 discriminator 2
 610 03a0 93841400 		addi	s1,s1,1
 611              	.LVL72:
 612              	.L40:
  96:test/MemoryAllocatorTest.cpp ****         Test* t = (Test*)allocator.getMemory(sizeof(Test));
 613              		.loc 1 96 24 discriminator 1
 614 03a4 B7470F00 		li	a5,999424
 615 03a8 9387F723 		addi	a5,a5,575
 616 03ac 63EC9700 		bgtu	s1,a5,.L39
 617              	.LBB12:
  97:test/MemoryAllocatorTest.cpp ****         if(t == 0)break;
 618              		.loc 1 97 9
  97:test/MemoryAllocatorTest.cpp ****         if(t == 0)break;
 619              		.loc 1 97 45 is_stmt 0
 620 03b0 93054000 		li	a1,4
 621 03b4 13050A00 		mv	a0,s4
GAS LISTING /tmp/ccn9qkLP.s 			page 15


 622 03b8 97000000 		call	_ZN15MemoryAllocator9getMemoryEm@plt
 622      E7800000 
 623              	.LVL73:
  98:test/MemoryAllocatorTest.cpp ****         t->a = X;
 624              		.loc 1 98 9 is_stmt 1
 625 03c0 E31805FC 		bnez	a0,.L44
 626              	.LVL74:
 627              	.L39:
 628              	.LBE12:
 629              	.LBE13:
 102:test/MemoryAllocatorTest.cpp ****     }
 103:test/MemoryAllocatorTest.cpp ****     printInteger(cnt);
 630              		.loc 1 103 5
 631              		.loc 1 103 17 is_stmt 0
 632 03c4 13050900 		mv	a0,s2
 633 03c8 97000000 		call	_Z12printIntegerm
 633      E7800000 
 634              	.LVL75:
 104:test/MemoryAllocatorTest.cpp ****     printString("\n");
 635              		.loc 1 104 5 is_stmt 1
 636              		.loc 1 104 16 is_stmt 0
 637 03d0 17050000 		lla	a0,.LC5
 637      13050500 
 638 03d8 97000000 		call	_Z11printStringPKc
 638      E7800000 
 639              	.LVL76:
 105:test/MemoryAllocatorTest.cpp ****     if(sum == X*cnt) printString("ok\n");
 640              		.loc 1 105 5 is_stmt 1
 641              		.loc 1 105 16 is_stmt 0
 642 03e0 93172900 		slli	a5,s2,2
 643 03e4 33892701 		add	s2,a5,s2
 644              	.LVL77:
 645 03e8 13191900 		slli	s2,s2,1
 646              		.loc 1 105 5
 647 03ec 630A3903 		beq	s2,s3,.L45
 106:test/MemoryAllocatorTest.cpp ****     else printString("not ok\n");
 648              		.loc 1 106 10 is_stmt 1
 649              		.loc 1 106 21 is_stmt 0
 650 03f0 17050000 		lla	a0,.LC1
 650      13050500 
 651 03f8 97000000 		call	_Z11printStringPKc
 651      E7800000 
 652              	.LVL78:
 653              	.L38:
 107:test/MemoryAllocatorTest.cpp **** }
 654              		.loc 1 107 1
 655 0400 83308102 		ld	ra,40(sp)
 656              		.cfi_remember_state
 657              		.cfi_restore 1
 658 0404 03340102 		ld	s0,32(sp)
 659              		.cfi_restore 8
 660              		.cfi_def_cfa 2, 48
 661 0408 83348101 		ld	s1,24(sp)
 662              		.cfi_restore 9
 663              	.LVL79:
 664 040c 03390101 		ld	s2,16(sp)
 665              		.cfi_restore 18
GAS LISTING /tmp/ccn9qkLP.s 			page 16


 666 0410 83398100 		ld	s3,8(sp)
 667              		.cfi_restore 19
 668              	.LVL80:
 669 0414 033A0100 		ld	s4,0(sp)
 670              		.cfi_restore 20
 671              	.LVL81:
 672 0418 13010103 		addi	sp,sp,48
 673              		.cfi_def_cfa_offset 0
 674 041c 67800000 		jr	ra
 675              	.LVL82:
 676              	.L45:
 677              		.cfi_restore_state
 105:test/MemoryAllocatorTest.cpp ****     if(sum == X*cnt) printString("ok\n");
 678              		.loc 1 105 22 is_stmt 1 discriminator 1
 105:test/MemoryAllocatorTest.cpp ****     if(sum == X*cnt) printString("ok\n");
 679              		.loc 1 105 33 is_stmt 0 discriminator 1
 680 0420 17050000 		lla	a0,.LC2
 680      13050500 
 681 0428 97000000 		call	_Z11printStringPKc
 681      E7800000 
 682              	.LVL83:
 683 0430 6FF01FFD 		j	.L38
 684              		.cfi_endproc
 685              	.LFE6:
 687              		.section	.rodata.str1.8
 688 004a 00000000 		.align	3
 688      0000
 689              	.LC6:
 690 0050 73747265 		.string	"stressTesting\n"
 690      73735465 
 690      7374696E 
 690      670A00
 691 005f 00       		.align	3
 692              	.LC7:
 693 0060 737A3A00 		.string	"sz:"
 694 0064 00000000 		.align	3
 695              	.LC8:
 696 0068 693A00   		.string	"i:"
 697 006b 00000000 		.align	3
 697      00
 698              	.LC9:
 699 0070 66726565 		.string	"free\n"
 699      0A00
 700 0076 0000     		.align	3
 701              	.LC10:
 702 0078 616C6C6F 		.string	"alloc\n"
 702      630A00
 703              		.text
 704              		.align	2
 705              		.globl	_Z13stressTestingR15MemoryAllocator
 707              	_Z13stressTestingR15MemoryAllocator:
 708              	.LFB7:
 108:test/MemoryAllocatorTest.cpp **** 
 109:test/MemoryAllocatorTest.cpp **** 
 110:test/MemoryAllocatorTest.cpp **** 
 111:test/MemoryAllocatorTest.cpp **** void stressTesting(MemoryAllocator& allocator){
 709              		.loc 1 111 47 is_stmt 1
GAS LISTING /tmp/ccn9qkLP.s 			page 17


 710              		.cfi_startproc
 711              	.LVL84:
 712 0434 13010181 		addi	sp,sp,-2032
 713              		.cfi_def_cfa_offset 2032
 714 0438 2334117E 		sd	ra,2024(sp)
 715 043c 2330817E 		sd	s0,2016(sp)
 716 0440 233C917C 		sd	s1,2008(sp)
 717 0444 2338217D 		sd	s2,2000(sp)
 718 0448 2334317D 		sd	s3,1992(sp)
 719 044c 2330417D 		sd	s4,1984(sp)
 720              		.cfi_offset 1, -8
 721              		.cfi_offset 8, -16
 722              		.cfi_offset 9, -24
 723              		.cfi_offset 18, -32
 724              		.cfi_offset 19, -40
 725              		.cfi_offset 20, -48
 726 0450 1304017F 		addi	s0,sp,2032
 727              		.cfi_def_cfa 8, 0
 728 0454 13010193 		addi	sp,sp,-1744
 729 0458 13090500 		mv	s2,a0
 112:test/MemoryAllocatorTest.cpp ****     printString("stressTesting\n");
 730              		.loc 1 112 5
 731              		.loc 1 112 16 is_stmt 0
 732 045c 17050000 		lla	a0,.LC6
 732      13050500 
 733              	.LVL85:
 734 0464 97000000 		call	_Z11printStringPKc
 734      E7800000 
 735              	.LVL86:
 736              	.LBB14:
 113:test/MemoryAllocatorTest.cpp ****     constexpr int num = 465;
 114:test/MemoryAllocatorTest.cpp ****     void* addrs[num];
 115:test/MemoryAllocatorTest.cpp ****     for(int i = 0; i<num;i++){
 737              		.loc 1 115 13
 738 046c 93040000 		li	s1,0
 739 0470 6F008000 		j	.L50
 740              	.LVL87:
 741              	.L48:
 742              		.loc 1 115 5 is_stmt 1 discriminator 2
 743 0474 9B841400 		addiw	s1,s1,1
 744              	.LVL88:
 745              	.L50:
 746              		.loc 1 115 21 discriminator 1
 747 0478 9307001D 		li	a5,464
 748 047c 63C29706 		bgt	s1,a5,.L60
 116:test/MemoryAllocatorTest.cpp ****         addrs[i] = allocator.getMemory(1);
 749              		.loc 1 116 9
 750              		.loc 1 116 39 is_stmt 0
 751 0480 93051000 		li	a1,1
 752 0484 13050900 		mv	a0,s2
 753 0488 97000000 		call	_ZN15MemoryAllocator9getMemoryEm@plt
 753      E7800000 
 754              	.LVL89:
 755              		.loc 1 116 18
 756 0490 37F7FFFF 		li	a4,-4096
 757 0494 93973400 		slli	a5,s1,3
 758 0498 930604FD 		addi	a3,s0,-48
GAS LISTING /tmp/ccn9qkLP.s 			page 18


 759 049c 3387E600 		add	a4,a3,a4
 760 04a0 B307F700 		add	a5,a4,a5
 761 04a4 23BCA716 		sd	a0,376(a5)
 117:test/MemoryAllocatorTest.cpp ****         if(addrs[i] == 0){
 762              		.loc 1 117 9 is_stmt 1
 763 04a8 E31605FC 		bnez	a0,.L48
 118:test/MemoryAllocatorTest.cpp ****             printString("not ok\n");
 764              		.loc 1 118 13
 765              		.loc 1 118 24 is_stmt 0
 766 04ac 17050000 		lla	a0,.LC1
 766      13050500 
 767 04b4 97000000 		call	_Z11printStringPKc
 767      E7800000 
 768              	.LVL90:
 119:test/MemoryAllocatorTest.cpp ****             return;
 769              		.loc 1 119 13 is_stmt 1
 770              	.L46:
 771              	.LBE14:
 120:test/MemoryAllocatorTest.cpp ****         }
 121:test/MemoryAllocatorTest.cpp ****     }
 122:test/MemoryAllocatorTest.cpp ****     int sz = 5;
 123:test/MemoryAllocatorTest.cpp ****     while(sz > 0){
 124:test/MemoryAllocatorTest.cpp ****         printString("sz:");
 125:test/MemoryAllocatorTest.cpp ****         printInteger(sz);
 126:test/MemoryAllocatorTest.cpp ****         for(int i = 0 ; i<num;i+=2){
 127:test/MemoryAllocatorTest.cpp ****             printString("i:");
 128:test/MemoryAllocatorTest.cpp ****             printInteger(i);
 129:test/MemoryAllocatorTest.cpp ****             printString("free\n");
 130:test/MemoryAllocatorTest.cpp ****             int retval = allocator.freeMemory(addrs[i]);
 131:test/MemoryAllocatorTest.cpp ****             if(retval != 0){
 132:test/MemoryAllocatorTest.cpp ****                 printString("not ok\n");
 133:test/MemoryAllocatorTest.cpp ****                 return;
 134:test/MemoryAllocatorTest.cpp ****             }
 135:test/MemoryAllocatorTest.cpp ****             printString("alloc\n");
 136:test/MemoryAllocatorTest.cpp ****             addrs[i] = allocator.getMemory(sz*2);
 137:test/MemoryAllocatorTest.cpp ****             if(addrs[i] == 0){
 138:test/MemoryAllocatorTest.cpp ****                 printString("not ok\n");;
 139:test/MemoryAllocatorTest.cpp ****                 return;
 140:test/MemoryAllocatorTest.cpp ****             }
 141:test/MemoryAllocatorTest.cpp ****         }
 142:test/MemoryAllocatorTest.cpp ****         for(int i = 1 ; i<num;i+=2){
 143:test/MemoryAllocatorTest.cpp ****             printString("i:");
 144:test/MemoryAllocatorTest.cpp ****             printInteger(i);
 145:test/MemoryAllocatorTest.cpp ****             printString("free\n");
 146:test/MemoryAllocatorTest.cpp ****             int retval = allocator.freeMemory(addrs[i]);
 147:test/MemoryAllocatorTest.cpp ****             if(retval != 0){
 148:test/MemoryAllocatorTest.cpp ****                 printString("not ok\n");
 149:test/MemoryAllocatorTest.cpp ****                 return;
 150:test/MemoryAllocatorTest.cpp ****             }
 151:test/MemoryAllocatorTest.cpp ****             printString("alloc\n");
 152:test/MemoryAllocatorTest.cpp ****             addrs[i] = allocator.getMemory(sz);
 153:test/MemoryAllocatorTest.cpp ****             if(addrs[i] == 0){
 154:test/MemoryAllocatorTest.cpp ****                 printString("not ok\n");;
 155:test/MemoryAllocatorTest.cpp ****                 return;
 156:test/MemoryAllocatorTest.cpp ****             }
 157:test/MemoryAllocatorTest.cpp ****         }
 158:test/MemoryAllocatorTest.cpp ****         sz-=10;
GAS LISTING /tmp/ccn9qkLP.s 			page 19


 159:test/MemoryAllocatorTest.cpp ****     }
 160:test/MemoryAllocatorTest.cpp ****     printString("ok\n");;
 161:test/MemoryAllocatorTest.cpp **** }
 772              		.loc 1 161 1 is_stmt 0
 773 04bc 1301016D 		addi	sp,sp,1744
 774              		.cfi_remember_state
 775              		.cfi_def_cfa 2, 2032
 776 04c0 8330817E 		ld	ra,2024(sp)
 777              		.cfi_restore 1
 778 04c4 0334017E 		ld	s0,2016(sp)
 779              		.cfi_restore 8
 780 04c8 8334817D 		ld	s1,2008(sp)
 781              		.cfi_restore 9
 782 04cc 0339017D 		ld	s2,2000(sp)
 783              		.cfi_restore 18
 784              	.LVL91:
 785 04d0 8339817C 		ld	s3,1992(sp)
 786              		.cfi_restore 19
 787 04d4 033A017C 		ld	s4,1984(sp)
 788              		.cfi_restore 20
 789 04d8 1301017F 		addi	sp,sp,2032
 790              		.cfi_def_cfa_offset 0
 791 04dc 67800000 		jr	ra
 792              	.LVL92:
 793              	.L60:
 794              		.cfi_restore_state
 122:test/MemoryAllocatorTest.cpp ****     while(sz > 0){
 795              		.loc 1 122 9
 796 04e0 93095000 		li	s3,5
 797              	.LVL93:
 798              	.L47:
 123:test/MemoryAllocatorTest.cpp ****         printString("sz:");
 799              		.loc 1 123 5 is_stmt 1
 123:test/MemoryAllocatorTest.cpp ****         printString("sz:");
 800              		.loc 1 123 14
 801 04e4 6352301D 		blez	s3,.L51
 802              	.LBB15:
 124:test/MemoryAllocatorTest.cpp ****         printInteger(sz);
 803              		.loc 1 124 9
 124:test/MemoryAllocatorTest.cpp ****         printInteger(sz);
 804              		.loc 1 124 20 is_stmt 0
 805 04e8 17050000 		lla	a0,.LC7
 805      13050500 
 806 04f0 97000000 		call	_Z11printStringPKc
 806      E7800000 
 807              	.LVL94:
 125:test/MemoryAllocatorTest.cpp ****         for(int i = 0 ; i<num;i+=2){
 808              		.loc 1 125 9 is_stmt 1
 125:test/MemoryAllocatorTest.cpp ****         for(int i = 0 ; i<num;i+=2){
 809              		.loc 1 125 21 is_stmt 0
 810 04f8 138A0900 		mv	s4,s3
 811 04fc 13850900 		mv	a0,s3
 812 0500 97000000 		call	_Z12printIntegerm
 812      E7800000 
 813              	.LVL95:
 814              	.LBB16:
 126:test/MemoryAllocatorTest.cpp ****             printString("i:");
GAS LISTING /tmp/ccn9qkLP.s 			page 20


 815              		.loc 1 126 17
 816 0508 93040000 		li	s1,0
 817              	.L55:
 818              	.LVL96:
 126:test/MemoryAllocatorTest.cpp ****             printString("i:");
 819              		.loc 1 126 26 is_stmt 1 discriminator 1
 820 050c 9307001D 		li	a5,464
 821 0510 63C2970C 		bgt	s1,a5,.L61
 822              	.LBB17:
 127:test/MemoryAllocatorTest.cpp ****             printInteger(i);
 823              		.loc 1 127 13
 127:test/MemoryAllocatorTest.cpp ****             printInteger(i);
 824              		.loc 1 127 24 is_stmt 0
 825 0514 17050000 		lla	a0,.LC8
 825      13050500 
 826 051c 97000000 		call	_Z11printStringPKc
 826      E7800000 
 827              	.LVL97:
 128:test/MemoryAllocatorTest.cpp ****             printString("free\n");
 828              		.loc 1 128 13 is_stmt 1
 128:test/MemoryAllocatorTest.cpp ****             printString("free\n");
 829              		.loc 1 128 25 is_stmt 0
 830 0524 13850400 		mv	a0,s1
 831 0528 97000000 		call	_Z12printIntegerm
 831      E7800000 
 832              	.LVL98:
 129:test/MemoryAllocatorTest.cpp ****             int retval = allocator.freeMemory(addrs[i]);
 833              		.loc 1 129 13 is_stmt 1
 129:test/MemoryAllocatorTest.cpp ****             int retval = allocator.freeMemory(addrs[i]);
 834              		.loc 1 129 24 is_stmt 0
 835 0530 17050000 		lla	a0,.LC9
 835      13050500 
 836 0538 97000000 		call	_Z11printStringPKc
 836      E7800000 
 837              	.LVL99:
 130:test/MemoryAllocatorTest.cpp ****             if(retval != 0){
 838              		.loc 1 130 13 is_stmt 1
 130:test/MemoryAllocatorTest.cpp ****             if(retval != 0){
 839              		.loc 1 130 46 is_stmt 0
 840 0540 37F7FFFF 		li	a4,-4096
 841 0544 93973400 		slli	a5,s1,3
 842 0548 930604FD 		addi	a3,s0,-48
 843 054c 3387E600 		add	a4,a3,a4
 844 0550 B307F700 		add	a5,a4,a5
 845 0554 83B58717 		ld	a1,376(a5)
 846 0558 13050900 		mv	a0,s2
 847 055c 97000000 		call	_ZN15MemoryAllocator10freeMemoryEPv@plt
 847      E7800000 
 848              	.LVL100:
 131:test/MemoryAllocatorTest.cpp ****                 printString("not ok\n");
 849              		.loc 1 131 13 is_stmt 1
 850 0564 63140504 		bnez	a0,.L63
 135:test/MemoryAllocatorTest.cpp ****             addrs[i] = allocator.getMemory(sz*2);
 851              		.loc 1 135 13
 135:test/MemoryAllocatorTest.cpp ****             addrs[i] = allocator.getMemory(sz*2);
 852              		.loc 1 135 24 is_stmt 0
 853 0568 17050000 		lla	a0,.LC10
GAS LISTING /tmp/ccn9qkLP.s 			page 21


 853      13050500 
 854              	.LVL101:
 855 0570 97000000 		call	_Z11printStringPKc
 855      E7800000 
 856              	.LVL102:
 136:test/MemoryAllocatorTest.cpp ****             if(addrs[i] == 0){
 857              		.loc 1 136 13 is_stmt 1
 136:test/MemoryAllocatorTest.cpp ****             if(addrs[i] == 0){
 858              		.loc 1 136 43 is_stmt 0
 859 0578 9B951900 		slliw	a1,s3,1
 860 057c 13050900 		mv	a0,s2
 861 0580 97000000 		call	_ZN15MemoryAllocator9getMemoryEm@plt
 861      E7800000 
 862              	.LVL103:
 136:test/MemoryAllocatorTest.cpp ****             if(addrs[i] == 0){
 863              		.loc 1 136 22
 864 0588 37F7FFFF 		li	a4,-4096
 865 058c 93973400 		slli	a5,s1,3
 866 0590 930604FD 		addi	a3,s0,-48
 867 0594 3387E600 		add	a4,a3,a4
 868 0598 B307F700 		add	a5,a4,a5
 869 059c 23BCA716 		sd	a0,376(a5)
 137:test/MemoryAllocatorTest.cpp ****                 printString("not ok\n");;
 870              		.loc 1 137 13 is_stmt 1
 871 05a0 63000502 		beqz	a0,.L64
 872              	.LBE17:
 126:test/MemoryAllocatorTest.cpp ****             printString("i:");
 873              		.loc 1 126 9 discriminator 2
 126:test/MemoryAllocatorTest.cpp ****             printString("i:");
 874              		.loc 1 126 32 is_stmt 0 discriminator 2
 875 05a4 9B842400 		addiw	s1,s1,2
 876              	.LVL104:
 126:test/MemoryAllocatorTest.cpp ****             printString("i:");
 877              		.loc 1 126 9 discriminator 2
 878 05a8 6FF05FF6 		j	.L55
 879              	.LVL105:
 880              	.L63:
 881              	.LBB18:
 132:test/MemoryAllocatorTest.cpp ****                 return;
 882              		.loc 1 132 17 is_stmt 1
 132:test/MemoryAllocatorTest.cpp ****                 return;
 883              		.loc 1 132 28 is_stmt 0
 884 05ac 17050000 		lla	a0,.LC1
 884      13050500 
 885              	.LVL106:
 886 05b4 97000000 		call	_Z11printStringPKc
 886      E7800000 
 887              	.LVL107:
 133:test/MemoryAllocatorTest.cpp ****             }
 888              		.loc 1 133 17 is_stmt 1
 889 05bc 6FF01FF0 		j	.L46
 890              	.L64:
 138:test/MemoryAllocatorTest.cpp ****                 return;
 891              		.loc 1 138 17
 138:test/MemoryAllocatorTest.cpp ****                 return;
 892              		.loc 1 138 28 is_stmt 0
 893 05c0 17050000 		lla	a0,.LC1
GAS LISTING /tmp/ccn9qkLP.s 			page 22


 893      13050500 
 894 05c8 97000000 		call	_Z11printStringPKc
 894      E7800000 
 895              	.LVL108:
 138:test/MemoryAllocatorTest.cpp ****                 return;
 896              		.loc 1 138 41 is_stmt 1
 139:test/MemoryAllocatorTest.cpp ****             }
 897              		.loc 1 139 17
 898 05d0 6FF0DFEE 		j	.L46
 899              	.L61:
 900              	.LBE18:
 901              	.LBE16:
 902              	.LBB19:
 142:test/MemoryAllocatorTest.cpp ****             printString("i:");
 903              		.loc 1 142 17 is_stmt 0
 904 05d4 93041000 		li	s1,1
 905              	.LVL109:
 906              	.L52:
 142:test/MemoryAllocatorTest.cpp ****             printString("i:");
 907              		.loc 1 142 26 is_stmt 1 discriminator 1
 908 05d8 9307001D 		li	a5,464
 909 05dc 63C2970C 		bgt	s1,a5,.L56
 910              	.LBB20:
 143:test/MemoryAllocatorTest.cpp ****             printInteger(i);
 911              		.loc 1 143 13
 143:test/MemoryAllocatorTest.cpp ****             printInteger(i);
 912              		.loc 1 143 24 is_stmt 0
 913 05e0 17050000 		lla	a0,.LC8
 913      13050500 
 914 05e8 97000000 		call	_Z11printStringPKc
 914      E7800000 
 915              	.LVL110:
 144:test/MemoryAllocatorTest.cpp ****             printString("free\n");
 916              		.loc 1 144 13 is_stmt 1
 144:test/MemoryAllocatorTest.cpp ****             printString("free\n");
 917              		.loc 1 144 25 is_stmt 0
 918 05f0 13850400 		mv	a0,s1
 919 05f4 97000000 		call	_Z12printIntegerm
 919      E7800000 
 920              	.LVL111:
 145:test/MemoryAllocatorTest.cpp ****             int retval = allocator.freeMemory(addrs[i]);
 921              		.loc 1 145 13 is_stmt 1
 145:test/MemoryAllocatorTest.cpp ****             int retval = allocator.freeMemory(addrs[i]);
 922              		.loc 1 145 24 is_stmt 0
 923 05fc 17050000 		lla	a0,.LC9
 923      13050500 
 924 0604 97000000 		call	_Z11printStringPKc
 924      E7800000 
 925              	.LVL112:
 146:test/MemoryAllocatorTest.cpp ****             if(retval != 0){
 926              		.loc 1 146 13 is_stmt 1
 146:test/MemoryAllocatorTest.cpp ****             if(retval != 0){
 927              		.loc 1 146 46 is_stmt 0
 928 060c 37F7FFFF 		li	a4,-4096
 929 0610 93973400 		slli	a5,s1,3
 930 0614 930604FD 		addi	a3,s0,-48
 931 0618 3387E600 		add	a4,a3,a4
GAS LISTING /tmp/ccn9qkLP.s 			page 23


 932 061c B307F700 		add	a5,a4,a5
 933 0620 83B58717 		ld	a1,376(a5)
 934 0624 13050900 		mv	a0,s2
 935 0628 97000000 		call	_ZN15MemoryAllocator10freeMemoryEPv@plt
 935      E7800000 
 936              	.LVL113:
 147:test/MemoryAllocatorTest.cpp ****                 printString("not ok\n");
 937              		.loc 1 147 13 is_stmt 1
 938 0630 63140504 		bnez	a0,.L65
 151:test/MemoryAllocatorTest.cpp ****             addrs[i] = allocator.getMemory(sz);
 939              		.loc 1 151 13
 151:test/MemoryAllocatorTest.cpp ****             addrs[i] = allocator.getMemory(sz);
 940              		.loc 1 151 24 is_stmt 0
 941 0634 17050000 		lla	a0,.LC10
 941      13050500 
 942              	.LVL114:
 943 063c 97000000 		call	_Z11printStringPKc
 943      E7800000 
 944              	.LVL115:
 152:test/MemoryAllocatorTest.cpp ****             if(addrs[i] == 0){
 945              		.loc 1 152 13 is_stmt 1
 152:test/MemoryAllocatorTest.cpp ****             if(addrs[i] == 0){
 946              		.loc 1 152 43 is_stmt 0
 947 0644 93050A00 		mv	a1,s4
 948 0648 13050900 		mv	a0,s2
 949 064c 97000000 		call	_ZN15MemoryAllocator9getMemoryEm@plt
 949      E7800000 
 950              	.LVL116:
 152:test/MemoryAllocatorTest.cpp ****             if(addrs[i] == 0){
 951              		.loc 1 152 22
 952 0654 37F7FFFF 		li	a4,-4096
 953 0658 93973400 		slli	a5,s1,3
 954 065c 930604FD 		addi	a3,s0,-48
 955 0660 3387E600 		add	a4,a3,a4
 956 0664 B307F700 		add	a5,a4,a5
 957 0668 23BCA716 		sd	a0,376(a5)
 153:test/MemoryAllocatorTest.cpp ****                 printString("not ok\n");;
 958              		.loc 1 153 13 is_stmt 1
 959 066c 63000502 		beqz	a0,.L66
 960              	.LBE20:
 142:test/MemoryAllocatorTest.cpp ****             printString("i:");
 961              		.loc 1 142 9 discriminator 2
 142:test/MemoryAllocatorTest.cpp ****             printString("i:");
 962              		.loc 1 142 32 is_stmt 0 discriminator 2
 963 0670 9B842400 		addiw	s1,s1,2
 964              	.LVL117:
 142:test/MemoryAllocatorTest.cpp ****             printString("i:");
 965              		.loc 1 142 9 discriminator 2
 966 0674 6FF05FF6 		j	.L52
 967              	.LVL118:
 968              	.L65:
 969              	.LBB21:
 148:test/MemoryAllocatorTest.cpp ****                 return;
 970              		.loc 1 148 17 is_stmt 1
 148:test/MemoryAllocatorTest.cpp ****                 return;
 971              		.loc 1 148 28 is_stmt 0
 972 0678 17050000 		lla	a0,.LC1
GAS LISTING /tmp/ccn9qkLP.s 			page 24


 972      13050500 
 973              	.LVL119:
 974 0680 97000000 		call	_Z11printStringPKc
 974      E7800000 
 975              	.LVL120:
 149:test/MemoryAllocatorTest.cpp ****             }
 976              		.loc 1 149 17 is_stmt 1
 977 0688 6FF05FE3 		j	.L46
 978              	.L66:
 154:test/MemoryAllocatorTest.cpp ****                 return;
 979              		.loc 1 154 17
 154:test/MemoryAllocatorTest.cpp ****                 return;
 980              		.loc 1 154 28 is_stmt 0
 981 068c 17050000 		lla	a0,.LC1
 981      13050500 
 982 0694 97000000 		call	_Z11printStringPKc
 982      E7800000 
 983              	.LVL121:
 154:test/MemoryAllocatorTest.cpp ****                 return;
 984              		.loc 1 154 41 is_stmt 1
 155:test/MemoryAllocatorTest.cpp ****             }
 985              		.loc 1 155 17
 986 069c 6FF01FE2 		j	.L46
 987              	.L56:
 988              	.LBE21:
 989              	.LBE19:
 158:test/MemoryAllocatorTest.cpp ****     }
 990              		.loc 1 158 9
 158:test/MemoryAllocatorTest.cpp ****     }
 991              		.loc 1 158 11 is_stmt 0
 992 06a0 9B8969FF 		addiw	s3,s3,-10
 993              	.LVL122:
 994              	.LBE15:
 123:test/MemoryAllocatorTest.cpp ****         printString("sz:");
 995              		.loc 1 123 5
 996 06a4 6FF01FE4 		j	.L47
 997              	.LVL123:
 998              	.L51:
 160:test/MemoryAllocatorTest.cpp **** }
 999              		.loc 1 160 5 is_stmt 1
 160:test/MemoryAllocatorTest.cpp **** }
 1000              		.loc 1 160 16 is_stmt 0
 1001 06a8 17050000 		lla	a0,.LC2
 1001      13050500 
 1002 06b0 97000000 		call	_Z11printStringPKc
 1002      E7800000 
 1003              	.LVL124:
 160:test/MemoryAllocatorTest.cpp **** }
 1004              		.loc 1 160 25 is_stmt 1
 1005 06b8 6FF05FE0 		j	.L46
 1006              		.cfi_endproc
 1007              	.LFE7:
 1009              	.Letext0:
 1010              		.file 2 "test/../test/../h/../lib/hw.h"
 1011              		.file 3 "test/../test/../h/MemoryAllocator.hpp"
 1012              		.file 4 "test/../test/MemoryAllocatorTest.hpp"
 1013              		.file 5 "test/../test/../lib/console.h"
GAS LISTING /tmp/ccn9qkLP.s 			page 25


GAS LISTING /tmp/ccn9qkLP.s 			page 26

